; Function Attrs: mustprogress nofree norecurse nosync nounwind willreturn memory(argmem: readwrite) uwtable
define noundef nonnull align 4 dereferenceable(16) ptr @_ZN32pxrInternal_v0_24__pxrReserved__10GfMatrix2fpLERKS0_(ptr noundef nonnull returned align 4 dereferenceable(16) %0, ptr noundef nonnull readonly align 4 captures(none) dereferenceable(16) %1) local_unnamed_addr #2 align 2 {
  %3 = load float, ptr %1, align 4
  %4 = load float, ptr %0, align 4
  %5 = fadd float %3, %4
  store float %5, ptr %0, align 4
  %6 = getelementptr inbounds nuw i8, ptr %1, i64 4
  %7 = load float, ptr %6, align 4
  %8 = getelementptr inbounds nuw i8, ptr %0, i64 4
  %9 = load float, ptr %8, align 4
  %10 = fadd float %7, %9
  store float %10, ptr %8, align 4
  %11 = getelementptr inbounds nuw i8, ptr %1, i64 8
  %12 = load float, ptr %11, align 4
  %13 = getelementptr inbounds nuw i8, ptr %0, i64 8
  %14 = load float, ptr %13, align 4
  %15 = fadd float %12, %14
  store float %15, ptr %13, align 4
  %16 = getelementptr inbounds nuw i8, ptr %1, i64 12
  %17 = load float, ptr %16, align 4
  %18 = getelementptr inbounds nuw i8, ptr %0, i64 12
  %19 = load float, ptr %18, align 4
  %20 = fadd float %17, %19
  store float %20, ptr %18, align 4
  ret ptr %0
}